#include <math.h>
#include <stdio.h>
#include <stdlib.h>
#include <string.h>

int main()
{
	int a[300],i=0,n=0,r,k=1,s;
	char b;
	for(;i<300;)
	{
		scanf("%d",&a[i]);
        i++;
		n++;
		scanf("%c",&b);
		if(b!=',')
			break;
	}
	if(n==1)
		printf("No\n");
	else
	{
		for(;k<n;k++)
		{

		for(i=0;i<n-k;i++)
		{
			if(a[i]<a[i+1])
			{
				r=a[i+1];
				a[i+1]=a[i];
				a[i]=r;
			}
		}
		}
		if(a[0]==a[n-1])
			printf("No\n");
		else
		{
			for(i=1;i<n;i++)
			{
				if(a[i]!=a[0])
				{
					s=i;
					break;
				}
			}
			printf("%d\n",a[s]);
		}
	}
	return 0;
}

