; ModuleID = '22/438.c'
source_filename = "22/438.c"
target datalayout = "e-m:e-p270:32:32-p271:32:32-p272:64:64-i64:64-f80:128-n8:16:32:64-S128"
target triple = "x86_64-pc-linux-gnu"

@.str = private unnamed_addr constant [3 x i8] c"%d\00", align 1
@.str.1 = private unnamed_addr constant [3 x i8] c"%c\00", align 1
@.str.2 = private unnamed_addr constant [4 x i8] c"No\0A\00", align 1
@.str.3 = private unnamed_addr constant [4 x i8] c"%d\0A\00", align 1

; Function Attrs: noinline nounwind uwtable
define dso_local i32 @main() #0 {
  %1 = alloca i32, align 4
  %2 = alloca [300 x i32], align 16
  %3 = alloca i32, align 4
  %4 = alloca i32, align 4
  %5 = alloca i32, align 4
  %6 = alloca i32, align 4
  %7 = alloca i32, align 4
  %8 = alloca i8, align 1
  store i32 0, i32* %1, align 4
  store i32 0, i32* %3, align 4
  store i32 0, i32* %4, align 4
  store i32 1, i32* %6, align 4
  br label %9

9:                                                ; preds = %26, %0
  %10 = load i32, i32* %3, align 4
  %11 = icmp slt i32 %10, 300
  br i1 %11, label %12, label %27

12:                                               ; preds = %9
  %13 = load i32, i32* %3, align 4
  %14 = sext i32 %13 to i64
  %15 = getelementptr inbounds [300 x i32], [300 x i32]* %2, i64 0, i64 %14
  %16 = call i32 (i8*, ...) @__isoc99_scanf(i8* getelementptr inbounds ([3 x i8], [3 x i8]* @.str, i64 0, i64 0), i32* %15)
  %17 = load i32, i32* %3, align 4
  %18 = add nsw i32 %17, 1
  store i32 %18, i32* %3, align 4
  %19 = load i32, i32* %4, align 4
  %20 = add nsw i32 %19, 1
  store i32 %20, i32* %4, align 4
  %21 = call i32 (i8*, ...) @__isoc99_scanf(i8* getelementptr inbounds ([3 x i8], [3 x i8]* @.str.1, i64 0, i64 0), i8* %8)
  %22 = load i8, i8* %8, align 1
  %23 = sext i8 %22 to i32
  %24 = icmp ne i32 %23, 44
  br i1 %24, label %25, label %26

25:                                               ; preds = %12
  br label %27

26:                                               ; preds = %12
  br label %9

27:                                               ; preds = %25, %9
  %28 = load i32, i32* %4, align 4
  %29 = icmp eq i32 %28, 1
  br i1 %29, label %30, label %32

30:                                               ; preds = %27
  %31 = call i32 (i8*, ...) @printf(i8* getelementptr inbounds ([4 x i8], [4 x i8]* @.str.2, i64 0, i64 0))
  br label %118

32:                                               ; preds = %27
  br label %33

33:                                               ; preds = %78, %32
  %34 = load i32, i32* %6, align 4
  %35 = load i32, i32* %4, align 4
  %36 = icmp slt i32 %34, %35
  br i1 %36, label %37, label %81

37:                                               ; preds = %33
  store i32 0, i32* %3, align 4
  br label %38

38:                                               ; preds = %74, %37
  %39 = load i32, i32* %3, align 4
  %40 = load i32, i32* %4, align 4
  %41 = load i32, i32* %6, align 4
  %42 = sub nsw i32 %40, %41
  %43 = icmp slt i32 %39, %42
  br i1 %43, label %44, label %77

44:                                               ; preds = %38
  %45 = load i32, i32* %3, align 4
  %46 = sext i32 %45 to i64
  %47 = getelementptr inbounds [300 x i32], [300 x i32]* %2, i64 0, i64 %46
  %48 = load i32, i32* %47, align 4
  %49 = load i32, i32* %3, align 4
  %50 = add nsw i32 %49, 1
  %51 = sext i32 %50 to i64
  %52 = getelementptr inbounds [300 x i32], [300 x i32]* %2, i64 0, i64 %51
  %53 = load i32, i32* %52, align 4
  %54 = icmp slt i32 %48, %53
  br i1 %54, label %55, label %73

55:                                               ; preds = %44
  %56 = load i32, i32* %3, align 4
  %57 = add nsw i32 %56, 1
  %58 = sext i32 %57 to i64
  %59 = getelementptr inbounds [300 x i32], [300 x i32]* %2, i64 0, i64 %58
  %60 = load i32, i32* %59, align 4
  store i32 %60, i32* %5, align 4
  %61 = load i32, i32* %3, align 4
  %62 = sext i32 %61 to i64
  %63 = getelementptr inbounds [300 x i32], [300 x i32]* %2, i64 0, i64 %62
  %64 = load i32, i32* %63, align 4
  %65 = load i32, i32* %3, align 4
  %66 = add nsw i32 %65, 1
  %67 = sext i32 %66 to i64
  %68 = getelementptr inbounds [300 x i32], [300 x i32]* %2, i64 0, i64 %67
  store i32 %64, i32* %68, align 4
  %69 = load i32, i32* %5, align 4
  %70 = load i32, i32* %3, align 4
  %71 = sext i32 %70 to i64
  %72 = getelementptr inbounds [300 x i32], [300 x i32]* %2, i64 0, i64 %71
  store i32 %69, i32* %72, align 4
  br label %73

73:                                               ; preds = %55, %44
  br label %74

74:                                               ; preds = %73
  %75 = load i32, i32* %3, align 4
  %76 = add nsw i32 %75, 1
  store i32 %76, i32* %3, align 4
  br label %38

77:                                               ; preds = %38
  br label %78

78:                                               ; preds = %77
  %79 = load i32, i32* %6, align 4
  %80 = add nsw i32 %79, 1
  store i32 %80, i32* %6, align 4
  br label %33

81:                                               ; preds = %33
  %82 = getelementptr inbounds [300 x i32], [300 x i32]* %2, i64 0, i64 0
  %83 = load i32, i32* %82, align 16
  %84 = load i32, i32* %4, align 4
  %85 = sub nsw i32 %84, 1
  %86 = sext i32 %85 to i64
  %87 = getelementptr inbounds [300 x i32], [300 x i32]* %2, i64 0, i64 %86
  %88 = load i32, i32* %87, align 4
  %89 = icmp eq i32 %83, %88
  br i1 %89, label %90, label %92

90:                                               ; preds = %81
  %91 = call i32 (i8*, ...) @printf(i8* getelementptr inbounds ([4 x i8], [4 x i8]* @.str.2, i64 0, i64 0))
  br label %117

92:                                               ; preds = %81
  store i32 1, i32* %3, align 4
  br label %93

93:                                               ; preds = %108, %92
  %94 = load i32, i32* %3, align 4
  %95 = load i32, i32* %4, align 4
  %96 = icmp slt i32 %94, %95
  br i1 %96, label %97, label %111

97:                                               ; preds = %93
  %98 = load i32, i32* %3, align 4
  %99 = sext i32 %98 to i64
  %100 = getelementptr inbounds [300 x i32], [300 x i32]* %2, i64 0, i64 %99
  %101 = load i32, i32* %100, align 4
  %102 = getelementptr inbounds [300 x i32], [300 x i32]* %2, i64 0, i64 0
  %103 = load i32, i32* %102, align 16
  %104 = icmp ne i32 %101, %103
  br i1 %104, label %105, label %107

105:                                              ; preds = %97
  %106 = load i32, i32* %3, align 4
  store i32 %106, i32* %7, align 4
  br label %111

107:                                              ; preds = %97
  br label %108

108:                                              ; preds = %107
  %109 = load i32, i32* %3, align 4
  %110 = add nsw i32 %109, 1
  store i32 %110, i32* %3, align 4
  br label %93

111:                                              ; preds = %105, %93
  %112 = load i32, i32* %7, align 4
  %113 = sext i32 %112 to i64
  %114 = getelementptr inbounds [300 x i32], [300 x i32]* %2, i64 0, i64 %113
  %115 = load i32, i32* %114, align 4
  %116 = call i32 (i8*, ...) @printf(i8* getelementptr inbounds ([4 x i8], [4 x i8]* @.str.3, i64 0, i64 0), i32 %115)
  br label %117

117:                                              ; preds = %111, %90
  br label %118

118:                                              ; preds = %117, %30
  ret i32 0
}

declare dso_local i32 @__isoc99_scanf(i8*, ...) #1

declare dso_local i32 @printf(i8*, ...) #1


!llvm.module.flags = !{!0}
!llvm.ident = !{!1}

!0 = !{i32 1, !"wchar_size", i32 4}
!1 = !{!"clang version 10.0.0-4ubuntu1 "}
